081109 203615 148 INFO dfs.DataNode$PacketResponder: PacketResponder 1 for block blk_38865049064139660 terminating
081109 203807 222 INFO dfs.DataNode$PacketResponder: PacketResponder 0 for block blk_-6952295868487656571 terminating
081109 204005 35 INFO dfs.FSNamesystem: BLOCK* NameSystem.addStoredBlock: blockMap updated: 10.251.73.220:50010 is added to blk_7128370237687728475 size 67108864
081109 204015 308 INFO dfs.DataNode$PacketResponder: PacketResponder 2 for block blk_8229193803249955061 terminating
081109 204106 329 INFO dfs.DataNode$PacketResponder: PacketResponder 2 for block blk_-6670958622368987959 terminating
081109 204132 26 INFO dfs.FSNamesystem: BLOCK* NameSystem.addStoredBlock: blockMap updated: 10.251.43.115:50010 is added to blk_3050920587428079149 size 67108864
081109 204324 34 INFO dfs.FSNamesystem: BLOCK* NameSystem.addStoredBlock: blockMap updated: 10.251.203.80:50010 is added to blk_7888946331804732825 size 67108864
081109 204453 34 INFO dfs.FSNamesystem: BLOCK* NameSystem.addStoredBlock: blockMap updated: 10.250.11.85:50010 is added to blk_2377150260128098806 size 67108864
081109 204525 512 INFO dfs.DataNode$PacketResponder: PacketResponder 2 for block blk_572492839287299681 terminating
081109 204655 556 INFO dfs.DataNode$PacketResponder: Received block blk_3587508140051953248 of size 67108864 from /10.251.42.84
081109 204722 567 INFO dfs.DataNode$PacketResponder: Received block blk_5402003568334525940 of size 67108864 from /10.251.214.112
081109 204815 653 INFO dfs.DataNode$DataXceiver: Receiving block blk_5792489080791696128 src: /10.251.30.6:33145 dest: /10.251.30.6:50010
081109 204842 663 INFO dfs.DataNode$DataXceiver: Receiving block blk_1724757848743533110 src: /10.251.111.130:49851 dest: /10.251.111.130:50010
081109 204908 31 INFO dfs.FSNamesystem: BLOCK* NameSystem.addStoredBlock: blockMap updated: 10.251.110.8:50010 is added to blk_8015913224713045110 size 67108864
081109 204925 673 INFO dfs.DataNode$DataXceiver: Receiving block blk_-5623176793330377570 src: /10.251.75.228:53725 dest: /10.251.75.228:50010
081109 205035 28 INFO dfs.FSNamesystem: BLOCK* NameSystem.allocateBlock: /user/root/rand/_temporary/_task_200811092030_0001_m_000590_0/part-00590. blk_-1727475099218615100
081109 205056 710 INFO dfs.DataNode$PacketResponder: PacketResponder 1 for block blk_5017373558217225674 terminating
081109 205157 752 INFO dfs.DataNode$PacketResponder: Received block blk_9212264480425680329 of size 67108864 from /10.251.123.1
081109 205315 29 INFO dfs.FSNamesystem: BLOCK* NameSystem.allocateBlock: /user/root/rand/_temporary/_task_200811092030_0001_m_000742_0/part-00742. blk_-7878121102358435702
081109 205409 28 INFO dfs.FSNamesystem: BLOCK* NameSystem.addStoredBlock: blockMap updated: 10.251.111.130:50010 is added to blk_4568434182693165548 size 67108864
081109 205412 832 INFO dfs.DataNode$PacketResponder: Received block blk_-5704899712662113150 of size 67108864 from /10.251.91.229
081109 205632 28 INFO dfs.FSNamesystem: BLOCK* NameSystem.addStoredBlock: blockMap updated: 10.251.74.79:50010 is added to blk_-4794867979917102672 size 67108864
081109 205739 29 INFO dfs.FSNamesystem: BLOCK* NameSystem.addStoredBlock: blockMap updated: 10.251.38.197:50010 is added to blk_8763662564934652249 size 67108864
081109 205742 1001 INFO dfs.DataNode$PacketResponder: Received block blk_-5861636720645142679 of size 67108864 from /10.251.70.211
081109 205746 29 INFO dfs.FSNamesystem: BLOCK* NameSystem.addStoredBlock: blockMap updated: 10.251.74.134:50010 is added to blk_7453815855294711849 size 67108864
081109 205749 997 INFO dfs.DataNode$DataXceiver: Receiving block blk_-28342503914935090 src: /10.251.123.132:57542 dest: /10.251.123.132:50010
081109 205754 952 INFO dfs.DataNode$PacketResponder: Received block blk_8291449241650212794 of size 67108864 from /10.251.89.155
081109 205858 31 INFO dfs.FSNamesystem: BLOCK* NameSystem.allocateBlock: /user/root/rand/_temporary/_task_200811092030_0001_m_000487_0/part-00487. blk_-5319073033164653435
081109 205931 13 INFO dfs.DataBlockScanner: Verification succeeded for blk_-4980916519894289629
081109 210022 1110 INFO dfs.DataNode$PacketResponder: Received block blk_-5974833545991408899 of size 67108864 from /10.251.31.180
081109 210037 1084 INFO dfs.DataNode$DataXceiver: Receiving block blk_-5009020203888190378 src: /10.251.199.19:52622 dest: /10.251.199.19:50010
081109 210248 1138 INFO dfs.DataNode$PacketResponder: Received block blk_6921674711959888070 of size 67108864 from /10.251.65.203
081109 210407 33 INFO dfs.FSNamesystem: BLOCK* NameSystem.addStoredBlock: blockMap updated: 10.250.7.244:50010 is added to blk_5165786360127153975 size 67108864
081109 210458 1278 INFO dfs.DataNode$DataXceiver: Receiving block blk_2937758977269298350 src: /10.251.194.129:37476 dest: /10.251.194.129:50010
081109 210551 32 INFO dfs.FSNamesystem: BLOCK* NameSystem.addStoredBlock: blockMap updated: 10.250.6.191:50010 is added to blk_673825774073966710 size 67108864
081109 210637 1283 INFO dfs.DataNode$PacketResponder: Received block blk_-7526945448667194862 of size 67108864 from /10.251.203.80
081109 210656 1334 INFO dfs.DataNode$PacketResponder: Received block blk_-2094397855762091248 of size 67108864 from /10.251.126.83
081109 210712 1333 INFO dfs.DataNode$PacketResponder: Received block blk_-8523968015014407246 of size 67108864 from /10.251.214.225
081109 210743 27 INFO dfs.FSNamesystem: BLOCK* NameSystem.addStoredBlock: blockMap updated: 10.251.89.155:50010 is added to blk_8181993091797661153 size 67108864
081109 210801 1357 INFO dfs.DataNode$DataXceiver: Receiving block blk_-6276023454199613372 src: /10.251.65.237:34085 dest: /10.251.65.237:50010
081109 210807 1408 INFO dfs.DataNode$PacketResponder: Received block blk_4755566011267050000 of size 67108864 from /10.251.75.79
081109 210812 1395 INFO dfs.DataNode$PacketResponder: Received block blk_-3909548841543565741 of size 3542967 from /10.251.195.33
081109 210921 1452 INFO dfs.DataNode$DataXceiver: Receiving block blk_-6809181994368905854 src: /10.250.17.225:51754 dest: /10.250.17.225:50010
081109 210935 1458 INFO dfs.DataNode$PacketResponder: Received block blk_8829027411458566099 of size 67108864 from /10.251.38.214
081109 211029 31 INFO dfs.FSNamesystem: BLOCK* NameSystem.addStoredBlock: blockMap updated: 10.251.106.50:50010 is added to blk_-29548654251973735 size 67108864
081109 211038 1490 INFO dfs.DataNode$PacketResponder: PacketResponder 1 for block blk_-5073870177832699716 terminating
081109 211216 1504 INFO dfs.DataNode$PacketResponder: Received block blk_-8241093737585222406 of size 67108864 from /10.250.5.161
081109 211301 29 INFO dfs.FSNamesystem: BLOCK* NameSystem.addStoredBlock: blockMap updated: 10.251.111.228:50010 is added to blk_-2480595760294717232 size 67108864
081109 211353 1574 INFO dfs.DataNode$PacketResponder: PacketResponder 0 for block blk_7791237942696729620 terminating
081109 211403 31 INFO dfs.FSNamesystem: BLOCK* NameSystem.addStoredBlock: blockMap updated: 10.251.202.134:50010 is added to blk_2113880130496815041 size 3549917
081109 211453 1623 INFO dfs.DataNode$PacketResponder: Received block blk_1064470652608359218 of size 67108864 from /10.251.39.242
081109 211528 29 INFO dfs.FSNamesystem: BLOCK* NameSystem.addStoredBlock: blockMap updated: 10.251.110.8:50010 is added to blk_-1661553043410372067 size 67108864
081109 211617 1635 INFO dfs.DataNode$PacketResponder: PacketResponder 1 for block blk_-1527267659500322006 terminating
081109 211918 1777 INFO dfs.DataNode$PacketResponder: PacketResponder 1 for block blk_4886940526690879848 terminating
081109 212029 1814 INFO dfs.DataNode$PacketResponder: Received block blk_-2452477352812192142 of size 67108864 from /10.250.7.244
081109 212219 1885 INFO dfs.DataNode$PacketResponder: PacketResponder 0 for block blk_-4229375751333894621 terminating
081109 212220 1946 INFO dfs.DataNode$DataXceiver: Receiving block blk_-774267833966018354 src: /10.251.38.53:51057 dest: /10.251.38.53:50010
081109 212245 27 INFO dfs.FSNamesystem: BLOCK* NameSystem.allocateBlock: /user/root/rand/_temporary/_task_200811092030_0001_m_001648_0/part-01648. blk_2513940824125131775
081109 212317 34 INFO dfs.FSNamesystem: BLOCK* NameSystem.allocateBlock: /user/root/rand/_temporary/_task_200811092030_0001_m_001866_0/part-01866. blk_-1282453782148343691
081109 212338 2007 INFO dfs.DataNode$PacketResponder: Received block blk_-518701095493827363 of size 67108864 from /10.251.214.67
081109 212403 35 INFO dfs.FSNamesystem: BLOCK* NameSystem.addStoredBlock: blockMap updated: 10.251.106.50:50010 is added to blk_-2530087534157630851 size 67108864
081109 212440 31 INFO dfs.FSNamesystem: BLOCK* NameSystem.addStoredBlock: blockMap updated: 10.251.198.196:50010 is added to blk_427714267500527780 size 67108864
081109 212703 2053 INFO dfs.DataNode$PacketResponder: Received block blk_-967145856473901804 of size 67108864 from /10.250.6.191
081109 212904 2174 INFO dfs.DataNode$PacketResponder: Received block blk_8408125361497769001 of size 67108864 from /10.251.70.211
081109 212931 2211 INFO dfs.DataNode$PacketResponder: Received block blk_-1614641487214609125 of size 67108864 from /10.251.193.175
081109 213009 2207 INFO dfs.DataNode$PacketResponder: Received block blk_7577595658377008671 of size 67108864 from /10.251.71.97
081109 213028 2206 INFO dfs.DataNode$PacketResponder: Received block blk_3777400576053320362 of size 67108864 from /10.251.31.5
081109 213217 2267 INFO dfs.DataNode$PacketResponder: PacketResponder 0 for block blk_-5852844080027817147 terminating
081109 213353 2313 INFO dfs.DataNode$PacketResponder: Received block blk_-2129171714384027465 of size 67108864 from /10.251.75.228
081109 213436 13 INFO dfs.DataBlockScanner: Verification succeeded for blk_-2827716238972737794
081109 213506 2421 INFO dfs.DataNode$DataXceiver: Receiving block blk_-3509323198988774369 src: /10.250.6.214:52922 dest: /10.250.6.214:50010
081109 213510 2384 INFO dfs.DataNode$PacketResponder: PacketResponder 0 for block blk_9093049293972551787 terminating
081109 213837 19 INFO dfs.FSDataset: Deleting block blk_1781953582842324563 file /mnt/hadoop/dfs/data/current/subdir5/blk_1781953582842324563
081109 213847 2552 INFO dfs.DataNode$DataXceiver: 10.251.194.213:50010 Served block blk_-7724713468912166542 to /10.251.203.80
081109 213907 2497 INFO dfs.DataNode$DataXceiver: 10.251.91.229:50010 Served block blk_-3358448553918665902 to /10.251.91.229
081109 213908 2549 INFO dfs.DataNode$DataXceiver: 10.251.39.192:50010 Served block blk_-5341992729755584578 to /10.251.39.192
081109 214009 2594 INFO dfs.DataNode$DataXceiver: 10.250.5.237:50010 Served block blk_3166960787499091856 to /10.251.43.147
081109 214043 2561 WARN dfs.DataNode$DataXceiver: 10.251.30.85:50010:Got exception while serving blk_-2918118818249673980 to /10.251.90.64:
081109 214402 2677 WARN dfs.DataNode$DataXceiver: 10.251.126.255:50010:Got exception while serving blk_8376667364205250596 to /10.251.91.159:
081109 214524 2633 INFO dfs.DataNode$DataXceiver: 10.251.71.68:50010 Served block blk_-2794533871450434534 to /10.251.199.150
081109 214529 2747 WARN dfs.DataNode$DataXceiver: 10.251.123.132:50010:Got exception while serving blk_3763728533434719668 to /10.251.38.214:
081109 214910 2848 WARN dfs.DataNode$DataXceiver: 10.250.13.188:50010:Got exception while serving blk_6241141267506413726 to /10.251.194.245:
081109 214919 2899 INFO dfs.DataNode$DataXceiver: 10.251.214.32:50010 Served block blk_-6520030462660619051 to /10.251.215.70
081109 215136 2868 WARN dfs.DataNode$DataXceiver: 10.251.199.19:50010:Got exception while serving blk_8466246428293623262 to /10.251.106.37:
081109 215259 2934 WARN dfs.DataNode$DataXceiver: 10.250.9.207:50010:Got exception while serving blk_-3140754468249228022 to /10.250.9.207:
081109 215702 3022 WARN dfs.DataNode$DataXceiver: 10.251.202.134:50010:Got exception while serving blk_3441699978641526775 to /10.251.126.5:
081109 215734 3055 INFO dfs.DataNode$DataXceiver: 10.250.6.214:50010 Served block blk_5739119717322549945 to /10.251.43.115
081109 220032 3137 WARN dfs.DataNode$DataXceiver: 10.250.14.196:50010:Got exception while serving blk_-305633040016166849 to /10.251.38.53:
081109 220403 3148 WARN dfs.DataNode$DataXceiver: 10.251.107.227:50010:Got exception while serving blk_-6290631608800952376 to /10.251.109.209:
081109 220528 3174 INFO dfs.DataNode$DataXceiver: 10.251.203.166:50010 Served block blk_8787656642683881295 to /10.251.107.98
081109 221105 3338 WARN dfs.DataNode$DataXceiver: 10.251.90.64:50010:Got exception while serving blk_-4841792440390267307 to /10.251.90.239:
081109 221151 3361 WARN dfs.DataNode$DataXceiver: 10.250.10.144:50010:Got exception while serving blk_5126469776250053435 to /10.250.11.100:
081109 222040 3463 WARN dfs.DataNode$DataXceiver: 10.251.71.146:50010:Got exception while serving blk_-2032740670708110312 to /10.251.197.161:
081109 222041 3390 WARN dfs.DataNode$DataXceiver: 10.251.67.113:50010:Got exception while serving blk_-62891505109755100 to /10.250.7.96:
081109 222342 3462 WARN dfs.DataNode$DataXceiver: 10.251.74.79:50010:Got exception while serving blk_2244903517044280975 to /10.251.74.134:
081109 222650 3459 WARN dfs.DataNode$DataXceiver: 10.251.214.112:50010:Got exception while serving blk_5905933788014151041 to /10.251.214.112:
081109 223211 3544 INFO dfs.DataNode$DataXceiver: 10.251.111.80:50010 Served block blk_6296828743242110158 to /10.251.42.246
081109 223910 3540 WARN dfs.DataNode$DataXceiver: 10.251.43.210:50010:Got exception while serving blk_2969087638814291714 to /10.251.199.86:
081109 224054 3560 WARN dfs.DataNode$DataXceiver: 10.251.126.255:50010:Got exception while serving blk_2879780987351022871 to /10.251.39.144:
081109 224234 3638 WARN dfs.DataNode$DataXceiver: 10.251.73.220:50010:Got exception while serving blk_4934527196392001803 to /10.251.203.246:
081109 224420 3666 WARN dfs.DataNode$DataXceiver: 10.251.73.188:50010:Got exception while serving blk_7517964792804498202 to /10.250.6.191:
081109 224741 3699 WARN dfs.DataNode$DataXceiver: 10.251.35.1:50010:Got exception while serving blk_7940316270494947483 to /10.251.122.38:
081109 230110 3647 WARN dfs.DataNode$DataXceiver: 10.251.90.134:50010:Got exception while serving blk_7154985168984871115 to /10.251.110.160:
081109 232200 3856 INFO dfs.DataNode$PacketResponder: Received block blk_-6867873931012347356 of size 67108864 from /10.251.39.64
081109 232324 32 INFO dfs.FSNamesystem: BLOCK* NameSystem.addStoredBlock: blockMap updated: 10.251.107.19:50010 is added to blk_6093743385844975689 size 67108864
081109 232346 3820 INFO dfs.DataNode$DataXceiver: Receiving block blk_8692428775973608797 src: /10.250.10.213:56574 dest: /10.250.10.213:50010
081109 232639 3792 INFO dfs.DataNode$PacketResponder: PacketResponder 0 for block blk_-6837050820114491742 terminating
081109 232828 3875 INFO dfs.DataNode$PacketResponder: Received block blk_-5195432543794777448 of size 67108864 from /10.250.10.6
081109 232829 33 INFO dfs.FSNamesystem: BLOCK* NameSystem.addStoredBlock: blockMap updated: 10.251.110.68:50010 is added to blk_1636660629634995787 size 67108864
081109 232833 32 INFO dfs.FSNamesystem: BLOCK* NameSystem.addStoredBlock: blockMap updated: 10.251.75.79:50010 is added to blk_467589865104023338 size 67108864
081109 232923 3792 INFO dfs.DataNode$PacketResponder: Received block blk_7929144620252342335 of size 67108864 from /10.251.31.5
081109 232926 3783 INFO dfs.DataNode$DataXceiver: Receiving block blk_-1798958443298220150 src: /10.251.111.209:57419 dest: /10.251.111.209:50010
081109 233108 3872 INFO dfs.DataNode$PacketResponder: PacketResponder 0 for block blk_-54240672253074715 terminating
081109 233356 3917 INFO dfs.DataNode$DataXceiver: Receiving block blk_-7172347691639518373 src: /10.251.111.37:35327 dest: /10.251.111.37:50010
081109 233753 3950 INFO dfs.DataNode$DataXceiver: Receiving block blk_-6412155847905320411 src: /10.251.30.85:58995 dest: /10.251.30.85:50010
081109 233835 4139 INFO dfs.DataNode$DataXceiver: Receiving block blk_699651392443620263 src: /10.251.70.5:34703 dest: /10.251.70.5:50010
081109 233836 4061 INFO dfs.DataNode$DataXceiver: Receiving block blk_-8788032532930439012 src: /10.251.126.255:41104 dest: /10.251.126.255:50010
081109 233849 4087 INFO dfs.DataNode$PacketResponder: Received block blk_-3455521536483250153 of size 67108864 from /10.251.106.37
081109 234027 26 INFO dfs.FSNamesystem: BLOCK* NameSystem.addStoredBlock: blockMap updated: 10.251.31.85:50010 is added to blk_-7017553867379051457 size 67108864
081109 234107 4261 INFO dfs.DataNode$DataXceiver: Receiving block blk_-1259190292740306590 src: /10.251.65.203:36289 dest: /10.251.65.203:50010
081109 234110 26 INFO dfs.FSNamesystem: BLOCK* NameSystem.allocateBlock: /user/root/sortrand/_temporary/_task_200811092030_0002_r_000296_0/part-00296. blk_-6620182933895093708
081109 234111 4288 INFO dfs.DataNode$PacketResponder: PacketResponder 1 for block blk_2028803850179311599 terminating
081109 234112 4136 INFO dfs.DataNode$DataXceiver: Receiving block blk_-8562334328670278932 src: /10.251.194.147:46714 dest: /10.251.194.147:50010
081109 234325 4246 INFO dfs.DataNode$PacketResponder: PacketResponder 1 for block blk_-8108913101671416218 terminating
081109 234512 4223 INFO dfs.DataNode$PacketResponder: PacketResponder 0 for block blk_-7640601843607665080 terminating
081109 234516 4136 INFO dfs.DataNode$DataXceiver: Receiving block blk_7654726977769174867 src: /10.251.110.160:49990 dest: /10.251.110.160:50010
081109 234555 4345 INFO dfs.DataNode$PacketResponder: PacketResponder 1 for block blk_8320088109701056055 terminating
081109 234605 26 INFO dfs.FSNamesystem: BLOCK* NameSystem.addStoredBlock: blockMap updated: 10.251.197.226:50010 is added to blk_4585055992495043771 size 67108864
081109 234644 4177 INFO dfs.DataNode$PacketResponder: Received block blk_-4330512786228504138 of size 67108864 from /10.251.67.225
081109 234706 34 INFO dfs.FSNamesystem: BLOCK* NameSystem.addStoredBlock: blockMap updated: 10.251.30.179:50010 is added to blk_4628142183191390143 size 67108864
081109 234719 4344 INFO dfs.DataNode$PacketResponder: PacketResponder 2 for block blk_-6766351519628312408 terminating
081109 234728 27 INFO dfs.FSNamesystem: BLOCK* NameSystem.addStoredBlock: blockMap updated: 10.250.5.237:50010 is added to blk_-476906696485288376 size 67108864
081109 234835 3972 INFO dfs.DataNode$PacketResponder: PacketResponder 0 for block blk_-7436749154361133879 terminating
081109 234835 4259 INFO dfs.DataNode$DataXceiver: Receiving block blk_7061131805920430446 src: /10.250.7.32:53397 dest: /10.250.7.32:50010
081109 234924 4275 INFO dfs.DataNode$PacketResponder: Received block blk_-684595390732854503 of size 67108864 from /10.250.6.191
081109 235030 31 INFO dfs.FSNamesystem: BLOCK* NameSystem.addStoredBlock: blockMap updated: 10.250.7.244:50010 is added to blk_-6956067134432991406 size 67108864
081109 235138 3469 INFO dfs.DataNode$PacketResponder: PacketResponder 0 for block blk_549647953114643908 terminating
081109 235140 31 INFO dfs.FSNamesystem: BLOCK* NameSystem.allocateBlock: /user/root/sortrand/_temporary/_task_200811092030_0002_r_000230_0/part-00230. blk_559204981722276126
081109 235305 4419 INFO dfs.DataNode$PacketResponder: PacketResponder 1 for block blk_-165500353496111884 terminating
081109 235311 34 INFO dfs.FSNamesystem: BLOCK* NameSystem.allocateBlock: /user/root/sortrand/_temporary/_task_200811092030_0002_r_000169_0/part-00169. blk_-7105305952901940477
081109 235322 3968 INFO dfs.DataNode$DataXceiver: Receiving block blk_-9103764593642564543 src: /10.251.43.115:46385 dest: /10.251.43.115:50010
081109 235337 4459 INFO dfs.DataNode$PacketResponder: PacketResponder 0 for block blk_3160319368100972992 terminating
081109 235426 4327 INFO dfs.DataNode$PacketResponder: Received block blk_-562725280853087685 of size 67108864 from /10.251.91.84
081109 235609 4400 INFO dfs.DataNode$PacketResponder: PacketResponder 1 for block blk_4568377692254637284 terminating
081109 235727 4429 INFO dfs.DataNode$DataXceiver: Receiving block blk_-5217146995455608468 src: /10.251.214.67:38871 dest: /10.251.214.67:50010
081109 235813 31 INFO dfs.FSNamesystem: BLOCK* NameSystem.addStoredBlock: blockMap updated: 10.251.199.225:50010 is added to blk_7481361125021302112 size 67108864
081109 235903 4454 INFO dfs.DataNode$PacketResponder: Received block blk_-71429470616906355 of size 67108864 from /10.250.19.16
081109 235904 4520 INFO dfs.DataNode$DataXceiver: Receiving block blk_-522892190802801712 src: /10.251.74.134:39584 dest: /10.251.74.134:50010
081109 235919 31 INFO dfs.FSNamesystem: BLOCK* NameSystem.addStoredBlock: blockMap updated: 10.251.107.19:50010 is added to blk_-3249711809227781266 size 67108864
081109 235951 4525 INFO dfs.DataNode$DataXceiver: Receiving block blk_-6329494504520216748 src: /10.251.25.237:39332 dest: /10.251.25.237:50010
081110 000117 33 INFO dfs.FSNamesystem: BLOCK* NameSystem.allocateBlock: /user/root/sortrand/_temporary/_task_200811092030_0002_r_000318_0/part-00318. blk_-207775976836691685
081110 000136 28 INFO dfs.FSNamesystem: BLOCK* NameSystem.addStoredBlock: blockMap updated: 10.250.6.4:50010 is added to blk_5114010683183383297 size 67108864
081110 000136 4627 INFO dfs.DataNode$PacketResponder: PacketResponder 1 for block blk_-7656610147924319419 terminating
081110 000232 27 INFO dfs.FSNamesystem: BLOCK* NameSystem.allocateBlock: /user/root/sortrand/_temporary/_task_200811092030_0002_r_000318_0/part-00318. blk_2096692261399680562
081110 000238 4717 INFO dfs.DataNode$PacketResponder: PacketResponder 0 for block blk_-6500549130351529113 terminating
081110 000319 4568 INFO dfs.DataNode$DataXceiver: Receiving block blk_-8255732027871411321 src: /10.251.39.179:33950 dest: /10.251.39.179:50010
081110 000507 4619 INFO dfs.DataNode$PacketResponder: PacketResponder 2 for block blk_-2896670847306153652 terminating
081110 000546 4624 INFO dfs.DataNode$DataXceiver: Receiving block blk_-8856628810470361280 src: /10.250.5.237:41923 dest: /10.250.5.237:50010
081110 000616 4552 INFO dfs.DataNode$PacketResponder: Received block blk_3463540868626173125 of size 67108864 from /10.251.30.134
081110 000657 4822 INFO dfs.DataNode$PacketResponder: Received block blk_-5309211894896608429 of size 67108864 from /10.251.202.181
081110 000727 34 INFO dfs.FSNamesystem: BLOCK* NameSystem.addStoredBlock: blockMap updated: 10.250.15.240:50010 is added to blk_-1055254430948037872 size 67108864
081110 000755 4717 INFO dfs.DataNode$DataXceiver: Receiving block blk_3962600675982666210 src: /10.251.123.195:37374 dest: /10.251.123.195:50010
081110 000820 4687 INFO dfs.DataNode$PacketResponder: PacketResponder 0 for block blk_-730776401372551814 terminating
081110 000841 4727 INFO dfs.DataNode$PacketResponder: PacketResponder 2 for block blk_-7553009628768897700 terminating
081110 001250 4631 INFO dfs.DataNode$PacketResponder: Received block blk_3068335169639013019 of size 67108864 from /10.251.71.68
081110 001307 29 INFO dfs.FSNamesystem: BLOCK* NameSystem.addStoredBlock: blockMap updated: 10.251.90.239:50010 is added to blk_-9069971851590882719 size 67108864
081110 001337 27 INFO dfs.FSNamesystem: BLOCK* NameSystem.addStoredBlock: blockMap updated: 10.251.67.4:50010 is added to blk_-8924134715029713489 size 67108864
081110 001350 29 INFO dfs.FSNamesystem: BLOCK* NameSystem.addStoredBlock: blockMap updated: 10.250.7.146:50010 is added to blk_278357163850888 size 67108864
081110 001745 4905 INFO dfs.DataNode$DataXceiver: Receiving block blk_-5135777574223073423 src: /10.251.65.237:48648 dest: /10.251.65.237:50010
081110 001818 4837 INFO dfs.DataNode$PacketResponder: PacketResponder 2 for block blk_-1148756466197125339 terminating
081110 002041 4863 INFO dfs.DataNode$PacketResponder: PacketResponder 1 for block blk_9074030793567748915 terminating
081110 002103 4928 INFO dfs.DataNode$PacketResponder: Received block blk_-4067446915270471579 of size 25933924 from /10.251.110.8
081110 002221 4855 INFO dfs.DataNode$PacketResponder: PacketResponder 0 for block blk_3259872359515191972 terminating
081110 002223 4824 INFO dfs.DataNode$PacketResponder: PacketResponder 1 for block blk_5963816136267066159 terminating
081110 002253 34 INFO dfs.FSNamesystem: BLOCK* NameSystem.allocateBlock: /user/root/sortrand/_temporary/_task_200811092030_0002_r_000138_0/part-00138. blk_-210021574616486609
081110 002337 13 INFO dfs.DataBlockScanner: Verification succeeded for blk_-1547954353065580372
081110 002914 4955 INFO dfs.DataNode$DataXceiver: Receiving block blk_-8524274644018377752 src: /10.251.42.16:33011 dest: /10.251.42.16:50010
081110 003441 4986 INFO dfs.DataNode$DataXceiver: Receiving block blk_-2015110815660478655 src: /10.251.35.1:53344 dest: /10.251.35.1:50010
081110 003502 4937 INFO dfs.DataNode$PacketResponder: Received block blk_7484759945731484842 of size 67108864 from /10.251.203.149
081110 004247 33 INFO dfs.FSNamesystem: BLOCK* NameSystem.addStoredBlock: blockMap updated: 10.251.39.242:50010 is added to blk_-4110733372292809607 size 67108864
081110 010354 5184 INFO dfs.DataNode$PacketResponder: Received block blk_-7152190882826520998 of size 67108864 from /10.250.14.143
081110 010438 4917 INFO dfs.DataNode$DataXceiver: Receiving block blk_-6543889749770222531 src: /10.251.107.98:56224 dest: /10.251.107.98:50010
081110 010506 5128 INFO dfs.DataNode$PacketResponder: Received block blk_8772892713521115147 of size 67108864 from /10.251.194.245
081110 010525 5099 INFO dfs.DataNode$PacketResponder: Received block blk_-6979800421545566530 of size 67108864 from /10.250.10.176
081110 010543 35 INFO dfs.FSNamesystem: BLOCK* NameSystem.allocateBlock: /user/root/randtxt/_temporary/_task_200811092030_0003_m_000382_0/part-00382. blk_8935202950442998446
081110 010629 5132 INFO dfs.DataNode$PacketResponder: PacketResponder 1 for block blk_-4799092443170733505 terminating
081110 010759 34 INFO dfs.FSNamesystem: BLOCK* NameSystem.allocateBlock: /user/root/randtxt/_temporary/_task_200811092030_0003_m_000392_0/part-00392. blk_-3010126661650043258
081110 010801 5186 INFO dfs.DataNode$PacketResponder: PacketResponder 2 for block blk_-5215520749152394224 terminating
081110 010815 5133 INFO dfs.DataNode$PacketResponder: PacketResponder 0 for block blk_397848436489409658 terminating
081110 010851 32 INFO dfs.FSNamesystem: BLOCK* NameSystem.addStoredBlock: blockMap updated: 10.251.199.86:50010 is added to blk_-9181958042427679309 size 67108864
081110 010917 5109 INFO dfs.DataNode$PacketResponder: Received block blk_-5124326558394984439 of size 67108864 from /10.251.122.79
081110 010918 32 INFO dfs.FSNamesystem: BLOCK* NameSystem.addStoredBlock: blockMap updated: 10.251.106.37:50010 is added to blk_-4741127506068309449 size 67108864
081110 010932 5174 INFO dfs.DataNode$PacketResponder: PacketResponder 1 for block blk_-4937215748597091532 terminating
081110 011001 26 INFO dfs.FSNamesystem: BLOCK* NameSystem.addStoredBlock: blockMap updated: 10.251.25.237:50010 is added to blk_541463031152673662 size 67108864
081110 011100 5230 INFO dfs.DataNode$PacketResponder: Received block blk_-7514806214244798312 of size 67108864 from /10.250.15.101
081110 011133 5157 INFO dfs.DataNode$PacketResponder: Received block blk_-7007208336332784130 of size 67108864 from /10.251.27.63
081110 011237 13 INFO dfs.DataBlockScanner: Verification succeeded for blk_6996194389878584395
081110 011335 31 INFO dfs.FSNamesystem: BLOCK* NameSystem.addStoredBlock: blockMap updated: 10.251.71.146:50010 is added to blk_-6836642008179678048 size 67108864
081110 011352 5321 INFO dfs.DataNode$PacketResponder: PacketResponder 1 for block blk_8060713381303305129 terminating
081110 011406 5296 INFO dfs.DataNode$DataXceiver: Receiving block blk_5760391051658436046 src: /10.251.42.84:59752 dest: /10.251.42.84:50010
081110 011431 33 INFO dfs.FSNamesystem: BLOCK* NameSystem.allocateBlock: /user/root/randtxt/_temporary/_task_200811092030_0003_m_000675_0/part-00675. blk_-7866582011201618766
081110 011448 28 INFO dfs.FSNamesystem: BLOCK* NameSystem.addStoredBlock: blockMap updated: 10.251.214.18:50010 is added to blk_-7555801584297376435 size 67108864
081110 011505 29 INFO dfs.FSNamesystem: BLOCK* NameSystem.addStoredBlock: blockMap updated: 10.251.26.177:50010 is added to blk_-5949883083428548093 size 67108864
081110 011521 33 INFO dfs.FSNamesystem: BLOCK* NameSystem.allocateBlock: /user/root/randtxt/_temporary/_task_200811092030_0003_m_000705_0/part-00705. blk_-9162090767925303921
081110 011538 5164 INFO dfs.DataNode$PacketResponder: PacketResponder 1 for block blk_-4196449318426994195 terminating
081110 011713 5420 INFO dfs.DataNode$DataXceiver: Receiving block blk_4238127626194855481 src: /10.250.11.100:59324 dest: /10.250.11.100:50010
081110 011731 5472 INFO dfs.DataNode$PacketResponder: Received block blk_-3805070405372551730 of size 67108864 from /10.251.109.236
081110 011846 5274 INFO dfs.DataNode$PacketResponder: Received block blk_-2013946318750925538 of size 67108864 from /10.251.126.22
081110 011925 5356 INFO dfs.DataNode$PacketResponder: PacketResponder 1 for block blk_3278280638950561822 terminating
081110 012005 5368 INFO dfs.DataNode$PacketResponder: PacketResponder 1 for block blk_-26568864070436835 terminating
081110 012245 5396 INFO dfs.DataNode$PacketResponder: PacketResponder 0 for block blk_-9161369067334198861 terminating
081110 012351 5301 INFO dfs.DataNode$PacketResponder: Received block blk_-1094025072435547068 of size 67108864 from /10.251.66.3
081110 012357 5523 INFO dfs.DataNode$PacketResponder: Received block blk_6534693994677948144 of size 67108864 from /10.251.201.204
081110 012426 5538 INFO dfs.DataNode$DataXceiver: Receiving block blk_7672124247291403094 src: /10.251.66.3:55531 dest: /10.251.66.3:50010
081110 012522 5491 INFO dfs.DataNode$PacketResponder: PacketResponder 1 for block blk_-5569558931000121451 terminating
081110 012753 5586 INFO dfs.DataNode$PacketResponder: PacketResponder 2 for block blk_-4566099704755845087 terminating
081110 012835 5558 INFO dfs.DataNode$PacketResponder: PacketResponder 0 for block blk_-8093500164295459838 terminating
081110 012855 5509 INFO dfs.DataNode$PacketResponder: Received block blk_-3787594914477940893 of size 67108864 from /10.251.71.16
081110 012857 5605 INFO dfs.DataNode$PacketResponder: Received block blk_426381928692704514 of size 67108864 from /10.251.122.38
081110 013125 27 INFO dfs.FSNamesystem: BLOCK* NameSystem.allocateBlock: /user/root/randtxt/_temporary/_task_200811092030_0003_m_001095_0/part-01095. blk_-7413910507260978729
081110 013220 5704 INFO dfs.DataNode$PacketResponder: PacketResponder 1 for block blk_4774656339381154282 terminating
081110 013231 5659 INFO dfs.DataNode$DataXceiver: Receiving block blk_-8227485321105019293 src: /10.251.195.33:56999 dest: /10.251.195.33:50010
081110 013306 33 INFO dfs.FSNamesystem: BLOCK* NameSystem.addStoredBlock: blockMap updated: 10.251.75.79:50010 is added to blk_5210211633167259832 size 67108864
081110 013406 5493 INFO dfs.DataNode$PacketResponder: PacketResponder 2 for block blk_2917692073041583988 terminating
081110 013412 30 INFO dfs.FSNamesystem: BLOCK* NameSystem.addStoredBlock: blockMap updated: 10.251.199.159:50010 is added to blk_-8558845834445970595 size 67108864
081110 013502 5576 INFO dfs.DataNode$PacketResponder: Received block blk_3852281952649038166 of size 67108864 from /10.251.122.65
081110 013506 5649 INFO dfs.DataNode$PacketResponder: PacketResponder 2 for block blk_-5442040196315589272 terminating
081110 013537 5804 INFO dfs.DataNode$DataXceiver: Receiving block blk_-6486714614940767660 src: /10.250.11.53:48454 dest: /10.250.11.53:50010
081110 013542 5646 INFO dfs.DataNode$PacketResponder: PacketResponder 0 for block blk_755689327380778318 terminating
081110 013545 5696 INFO dfs.DataNode$PacketResponder: Received block blk_-8847552694913526632 of size 67108864 from /10.251.201.204
081110 013559 5614 INFO dfs.DataNode$PacketResponder: Received block blk_7736147489540456118 of size 67108864 from /10.251.74.227
081110 013715 5706 INFO dfs.DataNode$PacketResponder: Received block blk_-3677956642639780952 of size 67108864 from /10.251.123.20
081110 013721 35 INFO dfs.FSNamesystem: BLOCK* NameSystem.addStoredBlock: blockMap updated: 10.251.73.220:50010 is added to blk_3073404534069578592 size 67108864
081110 013855 5764 INFO dfs.DataNode$PacketResponder: Received block blk_1498192967843651378 of size 67108864 from /10.251.42.84
081110 013938 4501 INFO dfs.DataNode$DataXceiver: Receiving block blk_148513789886825227 src: /10.251.123.33:54308 dest: /10.251.123.33:50010
081110 014002 5798 INFO dfs.DataNode$DataXceiver: Receiving block blk_7229716389774599497 src: /10.251.201.204:38310 dest: /10.251.201.204:50010
081110 014023 5733 INFO dfs.DataNode$PacketResponder: PacketResponder 0 for block blk_4741107979793372752 terminating
081110 014033 5854 INFO dfs.DataNode$DataXceiver: Receiving block blk_691517018986659607 src: /10.251.195.70:59379 dest: /10.251.195.70:50010
081110 014043 30 INFO dfs.FSNamesystem: BLOCK* NameSystem.addStoredBlock: blockMap updated: 10.251.203.129:50010 is added to blk_6002109944224710483 size 67108864
081110 014050 34 INFO dfs.FSNamesystem: BLOCK* NameSystem.addStoredBlock: blockMap updated: 10.251.122.65:50010 is added to blk_5095897972833086609 size 67108864
081110 014138 5832 INFO dfs.DataNode$PacketResponder: PacketResponder 1 for block blk_-3802183646922512795 terminating
081110 014145 30 INFO dfs.FSNamesystem: BLOCK* NameSystem.addStoredBlock: blockMap updated: 10.251.201.204:50010 is added to blk_9072829105973334075 size 67108864
081110 014207 27 INFO dfs.FSNamesystem: BLOCK* NameSystem.allocateBlock: /user/root/randtxt/_temporary/_task_200811092030_0003_m_001365_0/part-01365. blk_4841101867353115844
081110 014257 5803 INFO dfs.DataNode$PacketResponder: PacketResponder 1 for block blk_1997668456720275587 terminating
081110 014314 5599 INFO dfs.DataNode$PacketResponder: Received block blk_3304535870056962597 of size 67108864 from /10.251.203.166
081110 014349 5817 INFO dfs.DataNode$PacketResponder: PacketResponder 1 for block blk_-4853183643928986291 terminating
081110 014421 33 INFO dfs.FSNamesystem: BLOCK* NameSystem.addStoredBlock: blockMap updated: 10.251.107.196:50010 is added to blk_6828121630547887549 size 67108864
081110 014423 5775 INFO dfs.DataNode$PacketResponder: Received block blk_3084588477220583373 of size 67108864 from /10.251.125.174
081110 014428 5801 INFO dfs.DataNode$PacketResponder: PacketResponder 2 for block blk_-653434419514937486 terminating
081110 014519 32 INFO dfs.FSNamesystem: BLOCK* NameSystem.allocateBlock: /user/root/randtxt/_temporary/_task_200811092030_0003_m_001506_0/part-01506. blk_1104376461837247304
081110 014520 32 INFO dfs.FSNamesystem: BLOCK* NameSystem.addStoredBlock: blockMap updated: 10.251.111.130:50010 is added to blk_-5511630179413516751 size 67108864
081110 014536 6005 INFO dfs.DataNode$PacketResponder: PacketResponder 2 for block blk_4404895858852856851 terminating
081110 014727 29 INFO dfs.FSNamesystem: BLOCK* NameSystem.allocateBlock: /user/root/randtxt/_temporary/_task_200811092030_0003_m_001597_0/part-01597. blk_-591552904934794824
081110 014738 26 INFO dfs.FSNamesystem: BLOCK* NameSystem.allocateBlock: /user/root/randtxt/_temporary/_task_200811092030_0003_m_001377_0/part-01377. blk_-8408087700903896282
081110 014808 28 INFO dfs.FSNamesystem: BLOCK* NameSystem.addStoredBlock: blockMap updated: 10.251.122.38:50010 is added to blk_-5404881839098659470 size 67108864
081110 014847 5846 INFO dfs.DataNode$PacketResponder: PacketResponder 1 for block blk_703046261120042821 terminating
081110 014914 30 INFO dfs.FSNamesystem: BLOCK* NameSystem.allocateBlock: /user/root/randtxt/_temporary/_task_200811092030_0003_m_001728_0/part-01728. blk_-488298625688742454
081110 014953 5959 INFO dfs.DataNode$PacketResponder: PacketResponder 1 for block blk_6465095458973828118 terminating
081110 015013 6133 INFO dfs.DataNode$PacketResponder: PacketResponder 2 for block blk_-9110604833387121363 terminating
081110 015018 5852 INFO dfs.DataNode$DataXceiver: Receiving block blk_5977008528949258706 src: /10.251.214.32:43860 dest: /10.251.214.32:50010
081110 015024 5938 INFO dfs.DataNode$PacketResponder: PacketResponder 2 for block blk_3781645897486585075 terminating
081110 015031 26 INFO dfs.FSNamesystem: BLOCK* NameSystem.addStoredBlock: blockMap updated: 10.250.11.194:50010 is added to blk_-1635752698830216319 size 67108864
081110 015334 5970 INFO dfs.DataNode$PacketResponder: PacketResponder 0 for block blk_3070718541088657475 terminating
081110 015340 32 INFO dfs.FSNamesystem: BLOCK* NameSystem.allocateBlock: /user/root/randtxt/_temporary/_task_200811092030_0003_m_001661_0/part-01661. blk_-1674094254141559552
081110 015423 26 INFO dfs.FSNamesystem: BLOCK* NameSystem.addStoredBlock: blockMap updated: 10.251.197.161:50010 is added to blk_6080034782037237879 size 67108864
081110 015432 26 INFO dfs.FSNamesystem: BLOCK* NameSystem.allocateBlock: /user/root/randtxt/_temporary/_task_200811092030_0003_m_001630_0/part-01630. blk_-8645365827804358878
081110 015600 28 INFO dfs.FSNamesystem: BLOCK* NameSystem.allocateBlock: /user/root/randtxt/_temporary/_task_200811092030_0003_m_001817_0/part-01817. blk_3291173852929756766
081110 015607 6086 INFO dfs.DataNode$PacketResponder: Received block blk_892900079071425422 of size 67108864 from /10.251.73.188
081110 015626 5971 INFO dfs.DataNode$PacketResponder: PacketResponder 1 for block blk_2243777557693112935 terminating
081110 015649 6096 INFO dfs.DataNode$PacketResponder: Received block blk_-8192956077351896648 of size 67108864 from /10.251.110.196
081110 015716 6066 INFO dfs.DataNode$PacketResponder: Received block blk_5250287988089075029 of size 67108864 from /10.251.66.63
081110 015719 32 INFO dfs.FSNamesystem: BLOCK* NameSystem.addStoredBlock: blockMap updated: 10.251.30.6:50010 is added to blk_446513188203036714 size 67108864
081110 015740 6116 INFO dfs.DataNode$PacketResponder: Received block blk_-2020273862360001901 of size 67108864 from /10.250.7.244
081110 015750 5956 INFO dfs.DataNode$PacketResponder: PacketResponder 0 for block blk_3338047823148530794 terminating
081110 015759 29 INFO dfs.FSNamesystem: BLOCK* NameSystem.allocateBlock: /user/root/randtxt/_temporary/_task_200811092030_0003_m_001840_0/part-01840. blk_4210124392039605712
081110 015832 34 INFO dfs.FSNamesystem: BLOCK* NameSystem.addStoredBlock: blockMap updated: 10.251.71.240:50010 is added to blk_-6330812010936261924 size 67108864
081110 015942 31 INFO dfs.FSNamesystem: BLOCK* NameSystem.allocateBlock: /user/root/randtxt/_temporary/_task_200811092030_0003_m_001976_0/part-01976. blk_-8380267327243110056
081110 015959 32 INFO dfs.FSNamesystem: BLOCK* NameSystem.addStoredBlock: blockMap updated: 10.251.110.160:50010 is added to blk_-8077373411465716253 size 67108864
081110 020011 6037 INFO dfs.DataNode$PacketResponder: PacketResponder 0 for block blk_-9198375937828232046 terminating
081110 020019 5935 INFO dfs.DataNode$PacketResponder: PacketResponder 0 for block blk_9107849594802857322 terminating
081110 020034 6204 INFO dfs.DataNode$DataXceiver: Receiving block blk_271142976916798281 src: /10.251.70.112:50176 dest: /10.251.70.112:50010
081110 020140 6146 INFO dfs.DataNode$PacketResponder: Received block blk_4029732570544915384 of size 67108864 from /10.251.35.1
081110 020249 6148 INFO dfs.DataNode$PacketResponder: PacketResponder 0 for block blk_679168189072909208 terminating
081110 020302 33 INFO dfs.FSNamesystem: BLOCK* NameSystem.addStoredBlock: blockMap updated: 10.251.43.192:50010 is added to blk_6285161494041403917 size 67108864
081110 020313 6034 INFO dfs.DataNode$PacketResponder: Received block blk_-5306443381473737599 of size 67108864 from /10.251.195.52
081110 020322 6131 INFO dfs.DataNode$PacketResponder: PacketResponder 2 for block blk_-2466006073687914843 terminating
081110 020325 27 INFO dfs.FSNamesystem: BLOCK* NameSystem.addStoredBlock: blockMap updated: 10.251.43.210:50010 is added to blk_-6995454028444097802 size 67108864
081110 020357 31 INFO dfs.FSNamesystem: BLOCK* NameSystem.addStoredBlock: blockMap updated: 10.250.6.4:50010 is added to blk_344934934043642744 size 67108864
081110 020458 28 INFO dfs.FSNamesystem: BLOCK* NameSystem.addStoredBlock: blockMap updated: 10.250.7.230:50010 is added to blk_4984720043834039361 size 67108864
081110 020509 6043 INFO dfs.DataNode$DataXceiver: Receiving block blk_6398122733993275620 src: /10.251.111.80:53737 dest: /10.251.111.80:50010
081110 020632 32 INFO dfs.FSNamesystem: BLOCK* NameSystem.addStoredBlock: blockMap updated: 10.251.43.192:50010 is added to blk_325981833999429148 size 67108864
081110 020724 29 INFO dfs.FSNamesystem: BLOCK* NameSystem.delete: blk_2568309208894455676 is added to invalidSet of 10.251.31.160:50010
081110 022226 6281 INFO dfs.DataNode$DataXceiver: 10.250.19.16:50010 Served block blk_1078000656626961731 to /10.250.19.16
081110 023456 6415 WARN dfs.DataNode$DataXceiver: 10.251.67.225:50010:Got exception while serving blk_-6900989714336081087 to /10.251.25.237:
081110 024834 6371 INFO dfs.DataNode$DataXceiver: 10.251.126.227:50010 Served block blk_-8306714721294235181 to /10.251.126.227
081110 030331 6561 WARN dfs.DataNode$DataXceiver: 10.251.42.191:50010:Got exception while serving blk_-8023826090828946372 to /10.251.214.130:
081110 030942 6646 WARN dfs.DataNode$DataXceiver: 10.251.31.5:50010:Got exception while serving blk_-1367876730256254709 to /10.251.67.225:
081110 031019 6604 INFO dfs.DataNode$DataXceiver: 10.251.126.83:50010 Served block blk_-3860894070657427592 to /10.251.126.83
081110 032126 6555 WARN dfs.DataNode$DataXceiver: 10.251.26.8:50010:Got exception while serving blk_-7983508786213002472 to /10.251.38.197:
081110 035357 6606 INFO dfs.DataNode$DataXceiver: 10.251.71.97:50010 Served block blk_5454332143498402824 to /10.250.15.67
081110 040800 6739 INFO dfs.DataNode$DataXceiver: 10.250.6.214:50010 Served block blk_-3384560576963801177 to /10.250.6.214
081110 042826 6827 INFO dfs.DataNode$DataXceiver: 10.251.67.4:50010 Served block blk_-2901225370888235702 to /10.251.91.84
081110 045413 6957 INFO dfs.DataNode$DataXceiver: 10.251.215.50:50010 Served block blk_3963698556744744747 to /10.251.107.196
081110 050300 6683 INFO dfs.DataNode$DataXceiver: 10.251.30.134:50010 Served block blk_2039230511363331616 to /10.251.65.203
081110 051323 6956 INFO dfs.DataNode$DataXceiver: 10.251.71.146:50010 Served block blk_8482111101480751895 to /10.251.71.146
081110 054642 7145 INFO dfs.DataNode$DataXceiver: 10.251.215.16:50010 Served block blk_-5919767990596301121 to /10.251.215.16
081110 060453 7193 INFO dfs.DataNode$DataXceiver: 10.251.199.225:50010 Served block blk_8457344665564381337 to /10.251.199.225
081110 060934 7211 INFO dfs.DataNode$DataXceiver: 10.251.66.102:50010 Served block blk_2986720270598512615 to /10.251.66.102
081110 065635 7324 INFO dfs.DataNode$DataXceiver: 10.251.90.64:50010 Served block blk_-5719934513583495857 to /10.251.199.245
081110 070326 7430 WARN dfs.DataNode$DataXceiver: 10.251.75.228:50010:Got exception while serving blk_-7680599654910200999 to /10.251.75.228:
081110 070334 7327 INFO dfs.DataNode$DataXceiver: 10.251.111.37:50010 Served block blk_-6050976999174805557 to /10.251.111.37
081110 070347 7574 INFO dfs.DataNode$DataXceiver: 10.250.10.6:50010 Served block blk_1598414622053793245 to /10.251.90.239
081110 070614 7513 INFO dfs.DataNode$DataXceiver: 10.250.19.16:50010 Served block blk_-7837339190764609698 to /10.251.197.161
081110 070921 7744 INFO dfs.DataNode$DataXceiver: 10.251.39.144:50010 Served block blk_-8187008844253719581 to /10.251.91.32
081110 071154 7627 INFO dfs.DataNode$DataXceiver: 10.251.214.112:50010 Served block blk_4081177399275502985 to /10.251.110.68
081110 071426 7742 INFO dfs.DataNode$DataXceiver: 10.251.42.191:50010 Served block blk_3515154079719300106 to /10.251.42.191
081110 071657 7700 WARN dfs.DataNode$DataXceiver: 10.251.38.214:50010:Got exception while serving blk_5547569777499890340 to /10.251.195.52:
081110 072121 7820 INFO dfs.DataNode$DataXceiver: 10.251.123.99:50010 Served block blk_5385121219895615240 to /10.251.71.146
081110 072124 7772 WARN dfs.DataNode$DataXceiver: 10.251.42.246:50010:Got exception while serving blk_-7658293778087733436 to /10.251.30.179:
081110 080546 7970 WARN dfs.DataNode$DataXceiver: 10.251.111.130:50010:Got exception while serving blk_3169060243663461885 to /10.251.214.32:
081110 080555 8227 INFO dfs.DataNode$DataXceiver: 10.250.11.194:50010 Served block blk_3087787567144441647 to /10.251.91.84
081110 080718 7850 INFO dfs.DataNode$DataXceiver: 10.250.10.100:50010 Served block blk_-3657665801189425193 to /10.250.10.100
081110 080724 8080 INFO dfs.DataNode$DataXceiver: 10.251.74.79:50010 Served block blk_-3457731723401426942 to /10.251.74.79
081110 080814 8123 INFO dfs.DataNode$DataXceiver: 10.251.42.84:50010 Served block blk_6105506155797750768 to /10.251.42.84
081110 080847 8088 WARN dfs.DataNode$DataXceiver: 10.251.26.8:50010:Got exception while serving blk_-8522942048313632858 to /10.251.31.85:
081110 080922 7633 INFO dfs.DataNode$DataXceiver: 10.251.203.246:50010 Served block blk_365496398062338141 to /10.251.203.246
081110 080949 7994 INFO dfs.DataNode$DataXceiver: 10.250.19.227:50010 Served block blk_3979872751691718643 to /10.250.19.227
081110 081044 8125 WARN dfs.DataNode$DataXceiver: 10.251.123.1:50010:Got exception while serving blk_-272707591443354058 to /10.251.198.33:
081110 081054 8108 WARN dfs.DataNode$DataXceiver: 10.251.90.239:50010:Got exception while serving blk_-8679916835272129336 to /10.250.15.198:
081110 081337 8145 WARN dfs.DataNode$DataXceiver: 10.251.66.102:50010:Got exception while serving blk_6106884317961925960 to /10.251.66.102:
081110 081515 8312 WARN dfs.DataNode$DataXceiver: 10.251.31.5:50010:Got exception while serving blk_6332892729727950039 to /10.251.123.1:
081110 081643 8095 INFO dfs.DataNode$DataXceiver: 10.251.195.52:50010 Served block blk_6655622109568310643 to /10.251.195.52
081110 081643 8247 WARN dfs.DataNode$DataXceiver: 10.250.17.225:50010:Got exception while serving blk_-5935642747315643391 to /10.251.199.150:
081110 081741 8169 WARN dfs.DataNode$DataXceiver: 10.251.215.70:50010:Got exception while serving blk_-20269367189114433 to /10.251.30.179:
081110 082013 8326 INFO dfs.DataNode$DataXceiver: 10.251.43.115:50010 Served block blk_-7364557883931785608 to /10.251.43.115
081110 082043 8305 INFO dfs.DataNode$DataXceiver: 10.251.215.16:50010 Served block blk_2322432806134104317 to /10.251.215.16
081110 082444 8172 INFO dfs.DataNode$DataXceiver: 10.251.109.209:50010 Served block blk_4848669047361069041 to /10.251.26.177
081110 082702 8223 WARN dfs.DataNode$DataXceiver: 10.250.15.198:50010:Got exception while serving blk_-1851265222873801714 to /10.251.195.52:
081110 082706 8552 WARN dfs.DataNode$DataXceiver: 10.251.198.33:50010:Got exception while serving blk_-8495670552887053546 to /10.250.10.223:
081110 082737 8341 WARN dfs.DataNode$DataXceiver: 10.250.19.227:50010:Got exception while serving blk_-7372087176866857012 to /10.251.110.68:
081110 082954 8543 WARN dfs.DataNode$DataXceiver: 10.251.70.112:50010:Got exception while serving blk_4357276972386184626 to /10.251.74.79:
081110 083045 8495 WARN dfs.DataNode$DataXceiver: 10.251.215.16:50010:Got exception while serving blk_-4590972095204776122 to /10.251.30.6:
081110 083121 8197 INFO dfs.DataNode$DataXceiver: 10.251.106.214:50010 Served block blk_-8277873627721528374 to /10.251.122.79
081110 083231 8530 INFO dfs.DataNode$DataXceiver: 10.250.10.176:50010 Served block blk_3797494971676497497 to /10.251.29.239
081110 083328 8416 INFO dfs.DataNode$DataXceiver: 10.251.126.22:50010 Served block blk_805587860540600864 to /10.251.126.22
081110 083453 13 INFO dfs.DataBlockScanner: Verification succeeded for blk_3141363517520802396
081110 085042 13 INFO dfs.DataBlockScanner: Verification succeeded for blk_-1383276859207001328
081110 085933 13 INFO dfs.DataBlockScanner: Verification succeeded for blk_-4117999745005013424
081110 091216 7593 WARN dfs.DataNode$DataXceiver: 10.251.107.50:50010:Got exception while serving blk_4524198807982839635 to /10.251.122.79:
081110 091550 8683 WARN dfs.DataNode$DataXceiver: 10.251.111.209:50010:Got exception while serving blk_7505828172725463922 to /10.251.111.209:
081110 091657 8720 WARN dfs.DataNode$DataXceiver: 10.251.70.211:50010:Got exception while serving blk_424255210146453297 to /10.251.203.179:
081110 091800 8380 INFO dfs.DataNode$DataXceiver: 10.250.14.224:50010 Served block blk_666713934549639791 to /10.250.14.224
081110 092131 8815 INFO dfs.DataNode$DataXceiver: 10.251.30.179:50010 Served block blk_-2975629975082443857 to /10.251.30.179
081110 092151 8601 WARN dfs.DataNode$DataXceiver: 10.251.126.22:50010:Got exception while serving blk_1686195200514944346 to /10.250.6.223:
081110 092459 8650 INFO dfs.DataNode$DataXceiver: 10.250.9.207:50010 Served block blk_4355450627202483068 to /10.250.9.207
081110 092815 8872 INFO dfs.DataNode$DataXceiver: 10.250.6.191:50010 Served block blk_5952254363678329024 to /10.250.6.191
081110 093020 8827 WARN dfs.DataNode$DataXceiver: 10.251.70.211:50010:Got exception while serving blk_-667933171485085225 to /10.251.203.246:
081110 093643 13 INFO dfs.DataBlockScanner: Verification succeeded for blk_9188832735514090334
081110 093831 8571 INFO dfs.DataNode$DataXceiver: 10.251.106.10:50010 Served block blk_2273334621242106674 to /10.251.106.10
081110 094019 8808 WARN dfs.DataNode$DataXceiver: 10.251.125.193:50010:Got exception while serving blk_3790492230047189408 to /10.251.199.159:
081110 094657 7835 INFO dfs.DataNode$DataXceiver: 10.251.107.50:50010 Served block blk_-2285729896739318683 to /10.251.70.5
081110 103026 34 INFO dfs.FSNamesystem: BLOCK* NameSystem.delete: blk_-1233005817943453613 is added to invalidSet of 10.251.75.49:50010
081110 103026 34 INFO dfs.FSNamesystem: BLOCK* NameSystem.delete: blk_-8736461628840265232 is added to invalidSet of 10.251.195.70:50010
081110 103027 34 INFO dfs.FSNamesystem: BLOCK* NameSystem.delete: blk_166171721314010075 is added to invalidSet of 10.251.30.85:50010
081110 103027 34 INFO dfs.FSNamesystem: BLOCK* NameSystem.delete: blk_-3362838757940877177 is added to invalidSet of 10.250.5.161:50010
081110 103027 34 INFO dfs.FSNamesystem: BLOCK* NameSystem.delete: blk_-8026264173633579073 is added to invalidSet of 10.251.214.18:50010
081110 103027 34 INFO dfs.FSNamesystem: BLOCK* NameSystem.delete: blk_8350646254685996250 is added to invalidSet of 10.251.199.159:50010
081110 103028 34 INFO dfs.FSNamesystem: BLOCK* NameSystem.delete: blk_-4702684774678057084 is added to invalidSet of 10.250.13.240:50010
081110 103029 34 INFO dfs.FSNamesystem: BLOCK* NameSystem.delete: blk_434034567989619521 is added to invalidSet of 10.251.91.15:50010
081110 103030 34 INFO dfs.FSNamesystem: BLOCK* NameSystem.delete: blk_413552235254424009 is added to invalidSet of 10.251.35.1:50010
081110 103030 34 INFO dfs.FSNamesystem: BLOCK* NameSystem.delete: blk_7177118590277025973 is added to invalidSet of 10.251.121.224:50010
081110 103032 34 INFO dfs.FSNamesystem: BLOCK* NameSystem.delete: blk_2576408434603492552 is added to invalidSet of 10.251.106.37:50010
081110 103034 34 INFO dfs.FSNamesystem: BLOCK* NameSystem.delete: blk_356592557993755459 is added to invalidSet of 10.251.109.236:50010
081110 103035 34 INFO dfs.FSNamesystem: BLOCK* NameSystem.delete: blk_9111860234027679206 is added to invalidSet of 10.251.39.209:50010
081110 103036 34 INFO dfs.FSNamesystem: BLOCK* NameSystem.delete: blk_5178539130945718870 is added to invalidSet of 10.251.107.19:50010
081110 103037 34 INFO dfs.FSNamesystem: BLOCK* NameSystem.delete: blk_-1331750856499198500 is added to invalidSet of 10.251.38.53:50010
081110 103038 34 INFO dfs.FSNamesystem: BLOCK* NameSystem.delete: blk_-3792836284792472725 is added to invalidSet of 10.251.106.50:50010
081110 103038 34 INFO dfs.FSNamesystem: BLOCK* NameSystem.delete: blk_6031076349976322578 is added to invalidSet of 10.251.67.225:50010
081110 103040 34 INFO dfs.FSNamesystem: BLOCK* NameSystem.delete: blk_4438674026376140804 is added to invalidSet of 10.251.106.50:50010
081110 103041 34 INFO dfs.FSNamesystem: BLOCK* NameSystem.delete: blk_1777689952069868672 is added to invalidSet of 10.251.31.85:50010
081110 103044 34 INFO dfs.FSNamesystem: BLOCK* NameSystem.delete: blk_-3275788837420923000 is added to invalidSet of 10.251.109.236:50010
081110 103045 34 INFO dfs.FSNamesystem: BLOCK* NameSystem.delete: blk_-6056336045486998577 is added to invalidSet of 10.251.126.255:50010
081110 103046 34 INFO dfs.FSNamesystem: BLOCK* NameSystem.delete: blk_-5368528328022648701 is added to invalidSet of 10.251.202.181:50010
081110 103047 34 INFO dfs.FSNamesystem: BLOCK* NameSystem.delete: blk_-9056276727170871967 is added to invalidSet of 10.251.66.3:50010
081110 103049 34 INFO dfs.FSNamesystem: BLOCK* NameSystem.delete: blk_-6289001686128460561 is added to invalidSet of 10.251.91.84:50010
081110 103049 34 INFO dfs.FSNamesystem: BLOCK* NameSystem.delete: blk_6855535886504612774 is added to invalidSet of 10.251.70.211:50010
081110 103050 34 INFO dfs.FSNamesystem: BLOCK* NameSystem.delete: blk_-6477590833521072407 is added to invalidSet of 10.251.39.179:50010
081110 103050 34 INFO dfs.FSNamesystem: BLOCK* NameSystem.delete: blk_865453227320668516 is added to invalidSet of 10.251.71.240:50010
081110 103054 30 INFO dfs.FSNamesystem: BLOCK* NameSystem.delete: blk_2149728827322918746 is added to invalidSet of 10.250.11.194:50010
081110 103055 30 INFO dfs.FSNamesystem: BLOCK* NameSystem.delete: blk_6324712740029479576 is added to invalidSet of 10.251.30.6:50010
081110 103056 30 INFO dfs.FSNamesystem: BLOCK* NameSystem.delete: blk_6763863888784019261 is added to invalidSet of 10.251.70.37:50010
081110 103057 30 INFO dfs.FSNamesystem: BLOCK* NameSystem.delete: blk_1543605971733759530 is added to invalidSet of 10.251.195.33:50010
081110 103059 30 INFO dfs.FSNamesystem: BLOCK* NameSystem.delete: blk_-6114220623980201749 is added to invalidSet of 10.250.13.240:50010
081110 103059 30 INFO dfs.FSNamesystem: BLOCK* NameSystem.delete: blk_-945770324989341170 is added to invalidSet of 10.251.31.180:50010
081110 103107 30 INFO dfs.FSNamesystem: BLOCK* NameSystem.delete: blk_-5145886774827574591 is added to invalidSet of 10.251.105.189:50010
081110 103109 30 INFO dfs.FSNamesystem: BLOCK* NameSystem.delete: blk_3598904881888399067 is added to invalidSet of 10.250.5.237:50010
081110 103111 30 INFO dfs.FSNamesystem: BLOCK* NameSystem.delete: blk_-6255015379143356507 is added to invalidSet of 10.251.111.37:50010
081110 103111 30 INFO dfs.FSNamesystem: BLOCK* NameSystem.delete: blk_8247499802516177421 is added to invalidSet of 10.250.7.96:50010
081110 103111 30 INFO dfs.FSNamesystem: BLOCK* NameSystem.delete: blk_-8403618945096094999 is added to invalidSet of 10.251.42.9:50010
081110 103112 30 INFO dfs.FSNamesystem: BLOCK* NameSystem.delete: blk_-2012430628930443984 is added to invalidSet of 10.250.11.100:50010
081110 103112 30 INFO dfs.FSNamesystem: BLOCK* NameSystem.delete: blk_7819984111120374407 is added to invalidSet of 10.251.30.6:50010
081110 103113 30 INFO dfs.FSNamesystem: BLOCK* NameSystem.delete: blk_4499140370762613763 is added to invalidSet of 10.251.43.115:50010
081110 103114 30 INFO dfs.FSNamesystem: BLOCK* NameSystem.delete: blk_2304296078821316612 is added to invalidSet of 10.251.39.64:50010
081110 103114 30 INFO dfs.FSNamesystem: BLOCK* NameSystem.delete: blk_358331073189608564 is added to invalidSet of 10.251.67.225:50010
081110 103114 30 INFO dfs.FSNamesystem: BLOCK* NameSystem.delete: blk_8404604116961181201 is added to invalidSet of 10.250.13.188:50010
081110 103117 30 INFO dfs.FSNamesystem: BLOCK* NameSystem.delete: blk_-3582070652284403613 is added to invalidSet of 10.250.10.213:50010
081110 103123 33 INFO dfs.FSNamesystem: BLOCK* NameSystem.delete: blk_-4954795063440871977 is added to invalidSet of 10.251.203.80:50010
081110 103127 30 INFO dfs.FSNamesystem: BLOCK* NameSystem.delete: blk_-6640779266188771131 is added to invalidSet of 10.251.126.83:50010
081110 103130 30 INFO dfs.FSNamesystem: BLOCK* NameSystem.delete: blk_3858015337960682724 is added to invalidSet of 10.251.214.130:50010
081110 103130 30 INFO dfs.FSNamesystem: BLOCK* NameSystem.delete: blk_570916157110129687 is added to invalidSet of 10.251.214.18:50010
081110 103132 30 INFO dfs.FSNamesystem: BLOCK* NameSystem.delete: blk_-7418499425236853516 is added to invalidSet of 10.251.203.4:50010
081110 103136 30 INFO dfs.FSNamesystem: BLOCK* NameSystem.delete: blk_-7894824934989391122 is added to invalidSet of 10.251.38.197:50010
081110 103137 30 INFO dfs.FSNamesystem: BLOCK* NameSystem.delete: blk_-5005618994659797504 is added to invalidSet of 10.251.125.193:50010
081110 103137 30 INFO dfs.FSNamesystem: BLOCK* NameSystem.delete: blk_7932704730736035192 is added to invalidSet of 10.251.199.245:50010
081110 103139 30 INFO dfs.FSNamesystem: BLOCK* NameSystem.delete: blk_-2834195813213005328 is added to invalidSet of 10.250.7.244:50010
081110 103141 30 INFO dfs.FSNamesystem: BLOCK* NameSystem.delete: blk_-5972745462629982078 is added to invalidSet of 10.251.31.5:50010
081110 103142 30 INFO dfs.FSNamesystem: BLOCK* NameSystem.delete: blk_-7111788899695387329 is added to invalidSet of 10.251.75.228:50010
081110 103146 30 INFO dfs.FSNamesystem: BLOCK* NameSystem.delete: blk_-1110880362999960078 is added to invalidSet of 10.251.194.147:50010
081110 103146 30 INFO dfs.FSNamesystem: BLOCK* NameSystem.delete: blk_6489659315944341351 is added to invalidSet of 10.251.106.50:50010
081110 103146 30 INFO dfs.FSNamesystem: BLOCK* NameSystem.delete: blk_7324196727355442810 is added to invalidSet of 10.251.203.80:50010
081110 103147 30 INFO dfs.FSNamesystem: BLOCK* NameSystem.delete: blk_-2589662411410634043 is added to invalidSet of 10.251.42.16:50010
081110 103147 30 INFO dfs.FSNamesystem: BLOCK* NameSystem.delete: blk_8602496359012842630 is added to invalidSet of 10.250.7.32:50010
081110 103148 30 INFO dfs.FSNamesystem: BLOCK* NameSystem.delete: blk_-133919539232421451 is added to invalidSet of 10.250.10.176:50010
081110 103149 30 INFO dfs.FSNamesystem: BLOCK* NameSystem.delete: blk_-6136511938931864993 is added to invalidSet of 10.250.14.38:50010
081110 103149 30 INFO dfs.FSNamesystem: BLOCK* NameSystem.delete: blk_8871064397020855320 is added to invalidSet of 10.251.42.84:50010
081110 103201 19 INFO dfs.FSDataset: Deleting block blk_8483848473254499625 file /mnt/hadoop/dfs/data/current/subdir51/blk_8483848473254499625
081110 103233 8946 INFO dfs.DataNode$PacketResponder: Received block blk_-9188933731705791676 of size 67108864 from /10.251.39.192
081110 103257 19 INFO dfs.FSDataset: Deleting block blk_-8898274302731129139 file /mnt/hadoop/dfs/data/current/subdir18/blk_-8898274302731129139
081110 103320 18 INFO dfs.FSDataset: Deleting block blk_-8014701913801168461 file /mnt/hadoop/dfs/data/current/subdir27/blk_-8014701913801168461
081110 103321 19 INFO dfs.FSDataset: Deleting block blk_-8775602795571523802 file /mnt/hadoop/dfs/data/current/subdir29/blk_-8775602795571523802
081110 103327 19 INFO dfs.FSDataset: Deleting block blk_-7928230000822317050 file /mnt/hadoop/dfs/data/current/subdir9/blk_-7928230000822317050
081110 103328 19 INFO dfs.FSDataset: Deleting block blk_8303413189200230139 file /mnt/hadoop/dfs/data/current/subdir32/blk_8303413189200230139
081110 103331 19 INFO dfs.FSDataset: Deleting block blk_-9038475355621289969 file /mnt/hadoop/dfs/data/current/subdir41/blk_-9038475355621289969
081110 103333 9016 INFO dfs.DataNode$PacketResponder: Received block blk_4263664068073345850 of size 67108864 from /10.251.214.67
081110 103335 19 INFO dfs.FSDataset: Deleting block blk_-8848810702648406400 file /mnt/hadoop/dfs/data/current/subdir11/blk_-8848810702648406400
081110 103340 9214 INFO dfs.DataNode$PacketResponder: PacketResponder 2 for block blk_-6997219177553478996 terminating
081110 103343 27 INFO dfs.FSNamesystem: BLOCK* NameSystem.allocateBlock: /user/root/rand/_temporary/_task_200811101024_0001_m_000206_0/part-00206. blk_-2230892279625104430
081110 103347 19 INFO dfs.FSDataset: Deleting block blk_-7515058933811567980 file /mnt/hadoop/dfs/data/current/subdir1/blk_-7515058933811567980
081110 103348 19 INFO dfs.FSDataset: Deleting block blk_-8484827087450439270 file /mnt/hadoop/dfs/data/current/subdir25/blk_-8484827087450439270
081110 103349 19 INFO dfs.FSDataset: Deleting block blk_-8144387882075572886 file /mnt/hadoop/dfs/data/current/subdir42/blk_-8144387882075572886
081110 103354 19 INFO dfs.FSDataset: Deleting block blk_-8383503596684323017 file /mnt/hadoop/dfs/data/current/subdir26/blk_-8383503596684323017
081110 103400 19 INFO dfs.FSDataset: Deleting block blk_-8796256534683400159 file /mnt/hadoop/dfs/data/current/subdir18/blk_-8796256534683400159
081110 103403 19 INFO dfs.FSDataset: Deleting block blk_-8775602795571523802 file /mnt/hadoop/dfs/data/current/subdir41/blk_-8775602795571523802
081110 103412 7249 INFO dfs.DataNode$PacketResponder: Received block blk_4098532420907418423 of size 67108864 from /10.251.43.147
081110 103430 19 INFO dfs.FSDataset: Deleting block blk_-4368236874477798428 file /mnt/hadoop/dfs/data/current/subdir33/blk_-4368236874477798428
081110 103432 19 INFO dfs.FSDataset: Deleting block blk_-4223625526513535681 file /mnt/hadoop/dfs/data/current/subdir60/blk_-4223625526513535681
081110 103437 19 INFO dfs.FSDataset: Deleting block blk_-6400421658804613208 file /mnt/hadoop/dfs/data/current/subdir29/blk_-6400421658804613208
081110 103442 19 INFO dfs.FSDataset: Deleting block blk_-5880591395067598620 file /mnt/hadoop/dfs/data/current/subdir32/blk_-5880591395067598620
081110 103442 19 INFO dfs.FSDataset: Deleting block blk_-7096508472270520039 file /mnt/hadoop/dfs/data/current/subdir20/blk_-7096508472270520039
081110 103444 19 INFO dfs.FSDataset: Deleting block blk_-1939956833921604216 file /mnt/hadoop/dfs/data/current/subdir34/blk_-1939956833921604216
081110 103512 19 INFO dfs.FSDataset: Deleting block blk_-3860035787700398391 file /mnt/hadoop/dfs/data/current/subdir6/blk_-3860035787700398391
081110 103524 19 INFO dfs.FSDataset: Deleting block blk_-6008397446568765070 file /mnt/hadoop/dfs/data/current/blk_-6008397446568765070
081110 103527 19 INFO dfs.FSDataset: Deleting block blk_-2425070029518924403 file /mnt/hadoop/dfs/data/current/subdir39/blk_-2425070029518924403
081110 103533 18 INFO dfs.FSDataset: Deleting block blk_826351419727053015 file /mnt/hadoop/dfs/data/current/subdir6/blk_826351419727053015
081110 103533 19 INFO dfs.FSDataset: Deleting block blk_-3437475890798229344 file /mnt/hadoop/dfs/data/current/subdir57/blk_-3437475890798229344
081110 103534 19 INFO dfs.FSDataset: Deleting block blk_-1492402439215451727 file /mnt/hadoop/dfs/data/current/subdir25/blk_-1492402439215451727
081110 103538 18 INFO dfs.FSDataset: Deleting block blk_-4298255715894292387 file /mnt/hadoop/dfs/data/current/subdir38/blk_-4298255715894292387
081110 103547 19 INFO dfs.FSDataset: Deleting block blk_-4295805058711840933 file /mnt/hadoop/dfs/data/current/subdir0/blk_-4295805058711840933
081110 103548 19 INFO dfs.FSDataset: Deleting block blk_830855781964014378 file /mnt/hadoop/dfs/data/current/subdir48/blk_830855781964014378
081110 103551 19 INFO dfs.FSDataset: Deleting block blk_8291708741145026623 file /mnt/hadoop/dfs/data/current/subdir57/blk_8291708741145026623
081110 103552 19 INFO dfs.FSDataset: Deleting block blk_-921231092429668424 file /mnt/hadoop/dfs/data/current/subdir23/blk_-921231092429668424
081110 103553 19 INFO dfs.FSDataset: Deleting block blk_-1581605246928123722 file /mnt/hadoop/dfs/data/current/subdir13/blk_-1581605246928123722
081110 103554 18 INFO dfs.FSDataset: Deleting block blk_-2445347158368483245 file /mnt/hadoop/dfs/data/current/subdir30/blk_-2445347158368483245
081110 103554 19 INFO dfs.FSDataset: Deleting block blk_-1897524391075610396 file /mnt/hadoop/dfs/data/current/subdir47/blk_-1897524391075610396
081110 103557 19 INFO dfs.FSDataset: Deleting block blk_-8588908000680498 file /mnt/hadoop/dfs/data/current/subdir21/blk_-8588908000680498
081110 103558 19 INFO dfs.FSDataset: Deleting block blk_561417755647618727 file /mnt/hadoop/dfs/data/current/subdir4/blk_561417755647618727
081110 103600 19 INFO dfs.FSDataset: Deleting block blk_-6127741703501838658 file /mnt/hadoop/dfs/data/current/subdir53/blk_-6127741703501838658
081110 103603 18 INFO dfs.FSDataset: Deleting block blk_-3636681193077858741 file /mnt/hadoop/dfs/data/current/subdir37/blk_-3636681193077858741
081110 103615 18 INFO dfs.FSDataset: Deleting block blk_-643763844763678010 file /mnt/hadoop/dfs/data/current/subdir29/blk_-643763844763678010
081110 103615 19 INFO dfs.FSDataset: Deleting block blk_-2826763604408365998 file /mnt/hadoop/dfs/data/current/subdir40/blk_-2826763604408365998
081110 103618 19 INFO dfs.FSDataset: Deleting block blk_2278708746675870163 file /mnt/hadoop/dfs/data/current/subdir27/blk_2278708746675870163
081110 103621 19 INFO dfs.FSDataset: Deleting block blk_153508158653341141 file /mnt/hadoop/dfs/data/current/subdir50/blk_153508158653341141
081110 103621 19 INFO dfs.FSDataset: Deleting block blk_-1775264355226395799 file /mnt/hadoop/dfs/data/current/subdir26/blk_-1775264355226395799
081110 103626 18 INFO dfs.FSDataset: Deleting block blk_-1599621098605751235 file /mnt/hadoop/dfs/data/current/subdir16/blk_-1599621098605751235
081110 103631 19 INFO dfs.FSDataset: Deleting block blk_-1111344660779690782 file /mnt/hadoop/dfs/data/current/subdir40/blk_-1111344660779690782
081110 103631 19 INFO dfs.FSDataset: Deleting block blk_3585588704565901062 file /mnt/hadoop/dfs/data/current/subdir15/blk_3585588704565901062
081110 103634 19 INFO dfs.FSDataset: Deleting block blk_2756799797410851893 file /mnt/hadoop/dfs/data/current/subdir24/blk_2756799797410851893
081110 103641 19 INFO dfs.FSDataset: Deleting block blk_7323287581932922676 file /mnt/hadoop/dfs/data/current/subdir12/blk_7323287581932922676
081110 103655 9020 INFO dfs.DataNode$PacketResponder: Received block blk_-4935573595350235765 of size 67108864 from /10.251.123.195
081110 103657 32 INFO dfs.FSNamesystem: BLOCK* NameSystem.allocateBlock: /user/root/rand/_temporary/_task_200811101024_0001_m_000097_0/part-00097. blk_496376132244907301
081110 103659 19 INFO dfs.FSDataset: Deleting block blk_2731617036199392057 file /mnt/hadoop/dfs/data/current/subdir39/blk_2731617036199392057
081110 103704 19 INFO dfs.FSDataset: Deleting block blk_7190156588310412626 file /mnt/hadoop/dfs/data/current/subdir30/blk_7190156588310412626
081110 103717 19 INFO dfs.FSDataset: Deleting block blk_8189008752707332487 file /mnt/hadoop/dfs/data/current/subdir7/blk_8189008752707332487
081110 103719 19 INFO dfs.FSDataset: Deleting block blk_6828263829429857572 file /mnt/hadoop/dfs/data/current/subdir26/blk_6828263829429857572
081110 103729 19 INFO dfs.FSDataset: Deleting block blk_8492196963764530259 file /mnt/hadoop/dfs/data/current/subdir45/blk_8492196963764530259
081110 103731 19 INFO dfs.FSDataset: Deleting block blk_7942183449206967755 file /mnt/hadoop/dfs/data/current/subdir30/blk_7942183449206967755
081110 103734 19 INFO dfs.FSDataset: Deleting block blk_6223504502438507199 file /mnt/hadoop/dfs/data/current/subdir0/blk_6223504502438507199
081110 103735 19 INFO dfs.FSDataset: Deleting block blk_7519257846502835091 file /mnt/hadoop/dfs/data/current/subdir15/blk_7519257846502835091
081110 103739 19 INFO dfs.FSDataset: Deleting block blk_5272005015837990021 file /mnt/hadoop/dfs/data/current/subdir0/blk_5272005015837990021
081110 103743 19 INFO dfs.FSDataset: Deleting block blk_7090935285617451450 file /mnt/hadoop/dfs/data/current/subdir60/blk_7090935285617451450
081110 103749 19 INFO dfs.FSDataset: Deleting block blk_8145984793403459836 file /mnt/hadoop/dfs/data/current/blk_8145984793403459836
081110 103755 19 INFO dfs.FSDataset: Deleting block blk_7603278760520020831 file /mnt/hadoop/dfs/data/current/subdir59/blk_7603278760520020831
081110 103801 19 INFO dfs.FSDataset: Deleting block blk_9169945668827621796 file /mnt/hadoop/dfs/data/current/subdir50/blk_9169945668827621796
081110 103812 9115 INFO dfs.DataNode$PacketResponder: Received block blk_-5668584889663038916 of size 67108864 from /10.250.9.207
081110 103818 35 INFO dfs.FSNamesystem: BLOCK* NameSystem.addStoredBlock: blockMap updated: 10.251.194.147:50010 is added to blk_5277338321835341602 size 67108864
081110 103819 19 INFO dfs.FSDataset: Deleting block blk_6973321719929905054 file /mnt/hadoop/dfs/data/current/subdir14/blk_6973321719929905054
081110 103821 19 INFO dfs.FSDataset: Deleting block blk_5948455948626091880 file /mnt/hadoop/dfs/data/current/subdir28/blk_5948455948626091880
081110 103827 26 INFO dfs.FSNamesystem: BLOCK* NameSystem.addStoredBlock: blockMap updated: 10.251.75.49:50010 is added to blk_-3684613761619321001 size 67108864
081110 103840 19 INFO dfs.FSDataset: Deleting block blk_6497260538939100482 file /mnt/hadoop/dfs/data/current/subdir46/blk_6497260538939100482
081110 103840 9117 INFO dfs.DataNode$PacketResponder: PacketResponder 2 for block blk_-6991853982611346454 terminating
